target datalayout = "e-m:e-p270:32:32-p271:32:32-p272:64:64-i64:64-i128:128-f80:128-n8:16:32:64-S128"
target triple = "x86_64-pc-linux-gnu"

%struct.jpeg_compress_struct = type { ptr, ptr, ptr, ptr, i32, i32, ptr, i32, i32, i32, i32, double, i32, i32, i32, ptr, [4 x ptr], [4 x ptr], [4 x ptr], [16 x i8], [16 x i8], [16 x i8], i32, ptr, i32, i32, i32, i32, i32, i32, i32, i32, i32, i8, i8, i8, i16, i16, i32, i32, i32, i32, i32, i32, i32, [4 x ptr], i32, i32, i32, [10 x i32], i32, i32, i32, i32, ptr, ptr, ptr, ptr, ptr, ptr, ptr, ptr, ptr, ptr, i32 }
%struct.ppm_source_struct = type { %struct.cjpeg_source_struct, ptr, ptr, i64, ptr, i32 }
%struct.cjpeg_source_struct = type { ptr, ptr, ptr, ptr, ptr, ptr, ptr, i32, i32 }

@rgb_pixelsize = internal constant [17 x i32] [i32 -1, i32 -1, i32 3, i32 -1, i32 -1, i32 -1, i32 3, i32 4, i32 3, i32 4, i32 4, i32 4, i32 4, i32 4, i32 4, i32 4, i32 -1], align 16
@rgb_red = internal constant [17 x i32] [i32 -1, i32 -1, i32 0, i32 -1, i32 -1, i32 -1, i32 0, i32 0, i32 2, i32 2, i32 3, i32 1, i32 0, i32 2, i32 3, i32 1, i32 -1], align 16
@rgb_green = internal constant [17 x i32] [i32 -1, i32 -1, i32 1, i32 -1, i32 -1, i32 -1, i32 1, i32 1, i32 1, i32 1, i32 2, i32 2, i32 1, i32 1, i32 2, i32 2, i32 -1], align 16
@rgb_blue = internal constant [17 x i32] [i32 -1, i32 -1, i32 2, i32 -1, i32 -1, i32 -1, i32 2, i32 2, i32 0, i32 0, i32 1, i32 3, i32 2, i32 0, i32 1, i32 3, i32 -1], align 16
@alpha_index = internal global [17 x i32] [i32 -1, i32 -1, i32 -1, i32 -1, i32 -1, i32 -1, i32 -1, i32 -1, i32 -1, i32 -1, i32 -1, i32 -1, i32 3, i32 3, i32 0, i32 0, i32 -1], align 16

; Function Attrs: nounwind uwtable
define internal i32 @get_text_gray_rgb_row(ptr noundef %0, ptr noundef %1) #0 {
  %3 = alloca ptr, align 8
  %4 = alloca ptr, align 8
  %5 = alloca ptr, align 8
  %6 = alloca ptr, align 8
  %7 = alloca ptr, align 8
  %8 = alloca ptr, align 8
  %9 = alloca i32, align 4
  %10 = alloca i32, align 4
  %11 = alloca i32, align 4
  %12 = alloca i32, align 4
  %13 = alloca i32, align 4
  %14 = alloca i32, align 4
  %15 = alloca i32, align 4
  store ptr %0, ptr %3, align 8, !tbaa !4
  store ptr %1, ptr %4, align 8, !tbaa !46
  call void @llvm.lifetime.start.p0(i64 8, ptr %5) #6
  %16 = load ptr, ptr %4, align 8, !tbaa !46
  store ptr %16, ptr %5, align 8, !tbaa !37
  call void @llvm.lifetime.start.p0(i64 8, ptr %6) #6
  %17 = load ptr, ptr %5, align 8, !tbaa !37
  %18 = getelementptr inbounds nuw %struct.ppm_source_struct, ptr %17, i32 0, i32 0
  %19 = getelementptr inbounds nuw %struct.cjpeg_source_struct, ptr %18, i32 0, i32 3
  %20 = load ptr, ptr %19, align 8, !tbaa !48
  store ptr %20, ptr %6, align 8, !tbaa !70
  call void @llvm.lifetime.start.p0(i64 8, ptr %7) #6
  call void @llvm.lifetime.start.p0(i64 8, ptr %8) #6
  %21 = load ptr, ptr %5, align 8, !tbaa !37
  %22 = getelementptr inbounds nuw %struct.ppm_source_struct, ptr %21, i32 0, i32 4
  %23 = load ptr, ptr %22, align 8, !tbaa !66
  store ptr %23, ptr %8, align 8, !tbaa !73
  call void @llvm.lifetime.start.p0(i64 4, ptr %9) #6
  call void @llvm.lifetime.start.p0(i64 4, ptr %10) #6
  %24 = load ptr, ptr %5, align 8, !tbaa !37
  %25 = getelementptr inbounds nuw %struct.ppm_source_struct, ptr %24, i32 0, i32 5
  %26 = load i32, ptr %25, align 8, !tbaa !53
  store i32 %26, ptr %10, align 4, !tbaa !49
  call void @llvm.lifetime.start.p0(i64 4, ptr %11) #6
  %27 = load ptr, ptr %3, align 8, !tbaa !4
  %28 = getelementptr inbounds nuw %struct.jpeg_compress_struct, ptr %27, i32 0, i32 10
  %29 = load i32, ptr %28, align 4, !tbaa !54
  %30 = zext i32 %29 to i64
  %31 = getelementptr inbounds nuw [17 x i32], ptr @rgb_red, i64 0, i64 %30
  %32 = load i32, ptr %31, align 4, !tbaa !49
  store i32 %32, ptr %11, align 4, !tbaa !49
  call void @llvm.lifetime.start.p0(i64 4, ptr %12) #6
  %33 = load ptr, ptr %3, align 8, !tbaa !4
  %34 = getelementptr inbounds nuw %struct.jpeg_compress_struct, ptr %33, i32 0, i32 10
  %35 = load i32, ptr %34, align 4, !tbaa !54
  %36 = zext i32 %35 to i64
  %37 = getelementptr inbounds nuw [17 x i32], ptr @rgb_green, i64 0, i64 %36
  %38 = load i32, ptr %37, align 4, !tbaa !49
  store i32 %38, ptr %12, align 4, !tbaa !49
  call void @llvm.lifetime.start.p0(i64 4, ptr %13) #6
  %39 = load ptr, ptr %3, align 8, !tbaa !4
  %40 = getelementptr inbounds nuw %struct.jpeg_compress_struct, ptr %39, i32 0, i32 10
  %41 = load i32, ptr %40, align 4, !tbaa !54
  %42 = zext i32 %41 to i64
  %43 = getelementptr inbounds nuw [17 x i32], ptr @rgb_blue, i64 0, i64 %42
  %44 = load i32, ptr %43, align 4, !tbaa !49
  store i32 %44, ptr %13, align 4, !tbaa !49
  call void @llvm.lifetime.start.p0(i64 4, ptr %14) #6
  %45 = load ptr, ptr %3, align 8, !tbaa !4
  %46 = getelementptr inbounds nuw %struct.jpeg_compress_struct, ptr %45, i32 0, i32 10
  %47 = load i32, ptr %46, align 4, !tbaa !54
  %48 = zext i32 %47 to i64
  %49 = getelementptr inbounds nuw [17 x i32], ptr @alpha_index, i64 0, i64 %48
  %50 = load i32, ptr %49, align 4, !tbaa !49
  store i32 %50, ptr %14, align 4, !tbaa !49
  call void @llvm.lifetime.start.p0(i64 4, ptr %15) #6
  %51 = load ptr, ptr %3, align 8, !tbaa !4
  %52 = getelementptr inbounds nuw %struct.jpeg_compress_struct, ptr %51, i32 0, i32 10
  %53 = load i32, ptr %52, align 4, !tbaa !54
  %54 = zext i32 %53 to i64
  %55 = getelementptr inbounds nuw [17 x i32], ptr @rgb_pixelsize, i64 0, i64 %54
  %56 = load i32, ptr %55, align 4, !tbaa !49
  store i32 %56, ptr %15, align 4, !tbaa !49
  %57 = load ptr, ptr %5, align 8, !tbaa !37
  %58 = getelementptr inbounds nuw %struct.ppm_source_struct, ptr %57, i32 0, i32 0
  %59 = getelementptr inbounds nuw %struct.cjpeg_source_struct, ptr %58, i32 0, i32 4
  %60 = load ptr, ptr %59, align 8, !tbaa !63
  %61 = getelementptr inbounds ptr, ptr %60, i64 0
  %62 = load ptr, ptr %61, align 8, !tbaa !73
  store ptr %62, ptr %7, align 8, !tbaa !73
  %63 = load i32, ptr %10, align 4, !tbaa !49
  %64 = load ptr, ptr %3, align 8, !tbaa !4
  %65 = getelementptr inbounds nuw %struct.jpeg_compress_struct, ptr %64, i32 0, i32 12
  %66 = load i32, ptr %65, align 8, !tbaa !9
  %67 = shl i32 1, %66
  %68 = sub i32 %67, 1
  %69 = icmp eq i32 %63, %68
  br i1 %69, label %70, label %146

70:                                               ; preds = %2
  %71 = load i32, ptr %14, align 4, !tbaa !49
  %72 = icmp sge i32 %71, 0
  br i1 %72, label %73, label %112

73:                                               ; preds = %70
  %74 = load ptr, ptr %3, align 8, !tbaa !4
  %75 = getelementptr inbounds nuw %struct.jpeg_compress_struct, ptr %74, i32 0, i32 7
  %76 = load i32, ptr %75, align 8, !tbaa !51
  store i32 %76, ptr %9, align 4, !tbaa !49
  br label %77

77:                                               ; preds = %108, %73
  %78 = load i32, ptr %9, align 4, !tbaa !49
  %79 = icmp ugt i32 %78, 0
  br i1 %79, label %80, label %111

80:                                               ; preds = %77
  %81 = load ptr, ptr %3, align 8, !tbaa !4
  %82 = load ptr, ptr %6, align 8, !tbaa !70
  %83 = load i32, ptr %10, align 4, !tbaa !49
  %84 = call i32 @read_pbm_integer(ptr noundef %81, ptr noundef %82, i32 noundef %83)
  %85 = trunc i32 %84 to i8
  %86 = load ptr, ptr %7, align 8, !tbaa !73
  %87 = load i32, ptr %13, align 4, !tbaa !49
  %88 = sext i32 %87 to i64
  %89 = getelementptr inbounds i8, ptr %86, i64 %88
  store i8 %85, ptr %89, align 1, !tbaa !32
  %90 = load ptr, ptr %7, align 8, !tbaa !73
  %91 = load i32, ptr %12, align 4, !tbaa !49
  %92 = sext i32 %91 to i64
  %93 = getelementptr inbounds i8, ptr %90, i64 %92
  store i8 %85, ptr %93, align 1, !tbaa !32
  %94 = load ptr, ptr %7, align 8, !tbaa !73
  %95 = load i32, ptr %11, align 4, !tbaa !49
  %96 = sext i32 %95 to i64
  %97 = getelementptr inbounds i8, ptr %94, i64 %96
  store i8 %85, ptr %97, align 1, !tbaa !32
  %98 = load i32, ptr %10, align 4, !tbaa !49
  %99 = trunc i32 %98 to i8
  %100 = load ptr, ptr %7, align 8, !tbaa !73
  %101 = load i32, ptr %14, align 4, !tbaa !49
  %102 = sext i32 %101 to i64
  %103 = getelementptr inbounds i8, ptr %100, i64 %102
  store i8 %99, ptr %103, align 1, !tbaa !32
  %104 = load i32, ptr %15, align 4, !tbaa !49
  %105 = load ptr, ptr %7, align 8, !tbaa !73
  %106 = sext i32 %104 to i64
  %107 = getelementptr inbounds i8, ptr %105, i64 %106
  store ptr %107, ptr %7, align 8, !tbaa !73
  br label %108

108:                                              ; preds = %80
  %109 = load i32, ptr %9, align 4, !tbaa !49
  %110 = add i32 %109, -1
  store i32 %110, ptr %9, align 4, !tbaa !49
  br label %77, !llvm.loop !75

111:                                              ; preds = %77
  br label %145

112:                                              ; preds = %70
  %113 = load ptr, ptr %3, align 8, !tbaa !4
  %114 = getelementptr inbounds nuw %struct.jpeg_compress_struct, ptr %113, i32 0, i32 7
  %115 = load i32, ptr %114, align 8, !tbaa !51
  store i32 %115, ptr %9, align 4, !tbaa !49
  br label %116

116:                                              ; preds = %141, %112
  %117 = load i32, ptr %9, align 4, !tbaa !49
  %118 = icmp ugt i32 %117, 0
  br i1 %118, label %119, label %144

119:                                              ; preds = %116
  %120 = load ptr, ptr %3, align 8, !tbaa !4
  %121 = load ptr, ptr %6, align 8, !tbaa !70
  %122 = load i32, ptr %10, align 4, !tbaa !49
  %123 = call i32 @read_pbm_integer(ptr noundef %120, ptr noundef %121, i32 noundef %122)
  %124 = trunc i32 %123 to i8
  %125 = load ptr, ptr %7, align 8, !tbaa !73
  %126 = load i32, ptr %13, align 4, !tbaa !49
  %127 = sext i32 %126 to i64
  %128 = getelementptr inbounds i8, ptr %125, i64 %127
  store i8 %124, ptr %128, align 1, !tbaa !32
  %129 = load ptr, ptr %7, align 8, !tbaa !73
  %130 = load i32, ptr %12, align 4, !tbaa !49
  %131 = sext i32 %130 to i64
  %132 = getelementptr inbounds i8, ptr %129, i64 %131
  store i8 %124, ptr %132, align 1, !tbaa !32
  %133 = load ptr, ptr %7, align 8, !tbaa !73
  %134 = load i32, ptr %11, align 4, !tbaa !49
  %135 = sext i32 %134 to i64
  %136 = getelementptr inbounds i8, ptr %133, i64 %135
  store i8 %124, ptr %136, align 1, !tbaa !32
  %137 = load i32, ptr %15, align 4, !tbaa !49
  %138 = load ptr, ptr %7, align 8, !tbaa !73
  %139 = sext i32 %137 to i64
  %140 = getelementptr inbounds i8, ptr %138, i64 %139
  store ptr %140, ptr %7, align 8, !tbaa !73
  br label %141

141:                                              ; preds = %119
  %142 = load i32, ptr %9, align 4, !tbaa !49
  %143 = add i32 %142, -1
  store i32 %143, ptr %9, align 4, !tbaa !49
  br label %116, !llvm.loop !76

144:                                              ; preds = %116
  br label %145

145:                                              ; preds = %144, %111
  br label %232

146:                                              ; preds = %2
  %147 = load i32, ptr %14, align 4, !tbaa !49
  %148 = icmp sge i32 %147, 0
  br i1 %148, label %149, label %195

149:                                              ; preds = %146
  %150 = load ptr, ptr %3, align 8, !tbaa !4
  %151 = getelementptr inbounds nuw %struct.jpeg_compress_struct, ptr %150, i32 0, i32 7
  %152 = load i32, ptr %151, align 8, !tbaa !51
  store i32 %152, ptr %9, align 4, !tbaa !49
  br label %153

153:                                              ; preds = %191, %149
  %154 = load i32, ptr %9, align 4, !tbaa !49
  %155 = icmp ugt i32 %154, 0
  br i1 %155, label %156, label %194

156:                                              ; preds = %153
  %157 = load ptr, ptr %8, align 8, !tbaa !73
  %158 = load ptr, ptr %3, align 8, !tbaa !4
  %159 = load ptr, ptr %6, align 8, !tbaa !70
  %160 = load i32, ptr %10, align 4, !tbaa !49
  %161 = call i32 @read_pbm_integer(ptr noundef %158, ptr noundef %159, i32 noundef %160)
  %162 = zext i32 %161 to i64
  %163 = getelementptr inbounds nuw i8, ptr %157, i64 %162
  %164 = load i8, ptr %163, align 1, !tbaa !32
  %165 = load ptr, ptr %7, align 8, !tbaa !73
  %166 = load i32, ptr %13, align 4, !tbaa !49
  %167 = sext i32 %166 to i64
  %168 = getelementptr inbounds i8, ptr %165, i64 %167
  store i8 %164, ptr %168, align 1, !tbaa !32
  %169 = load ptr, ptr %7, align 8, !tbaa !73
  %170 = load i32, ptr %12, align 4, !tbaa !49
  %171 = sext i32 %170 to i64
  %172 = getelementptr inbounds i8, ptr %169, i64 %171
  store i8 %164, ptr %172, align 1, !tbaa !32
  %173 = load ptr, ptr %7, align 8, !tbaa !73
  %174 = load i32, ptr %11, align 4, !tbaa !49
  %175 = sext i32 %174 to i64
  %176 = getelementptr inbounds i8, ptr %173, i64 %175
  store i8 %164, ptr %176, align 1, !tbaa !32
  %177 = load ptr, ptr %3, align 8, !tbaa !4
  %178 = getelementptr inbounds nuw %struct.jpeg_compress_struct, ptr %177, i32 0, i32 12
  %179 = load i32, ptr %178, align 8, !tbaa !9
  %180 = shl i32 1, %179
  %181 = sub nsw i32 %180, 1
  %182 = trunc i32 %181 to i8
  %183 = load ptr, ptr %7, align 8, !tbaa !73
  %184 = load i32, ptr %14, align 4, !tbaa !49
  %185 = sext i32 %184 to i64
  %186 = getelementptr inbounds i8, ptr %183, i64 %185
  store i8 %182, ptr %186, align 1, !tbaa !32
  %187 = load i32, ptr %15, align 4, !tbaa !49
  %188 = load ptr, ptr %7, align 8, !tbaa !73
  %189 = sext i32 %187 to i64
  %190 = getelementptr inbounds i8, ptr %188, i64 %189
  store ptr %190, ptr %7, align 8, !tbaa !73
  br label %191

191:                                              ; preds = %156
  %192 = load i32, ptr %9, align 4, !tbaa !49
  %193 = add i32 %192, -1
  store i32 %193, ptr %9, align 4, !tbaa !49
  br label %153, !llvm.loop !77

194:                                              ; preds = %153
  br label %231

195:                                              ; preds = %146
  %196 = load ptr, ptr %3, align 8, !tbaa !4
  %197 = getelementptr inbounds nuw %struct.jpeg_compress_struct, ptr %196, i32 0, i32 7
  %198 = load i32, ptr %197, align 8, !tbaa !51
  store i32 %198, ptr %9, align 4, !tbaa !49
  br label %199

199:                                              ; preds = %227, %195
  %200 = load i32, ptr %9, align 4, !tbaa !49
  %201 = icmp ugt i32 %200, 0
  br i1 %201, label %202, label %230

202:                                              ; preds = %199
  %203 = load ptr, ptr %8, align 8, !tbaa !73
  %204 = load ptr, ptr %3, align 8, !tbaa !4
  %205 = load ptr, ptr %6, align 8, !tbaa !70
  %206 = load i32, ptr %10, align 4, !tbaa !49
  %207 = call i32 @read_pbm_integer(ptr noundef %204, ptr noundef %205, i32 noundef %206)
  %208 = zext i32 %207 to i64
  %209 = getelementptr inbounds nuw i8, ptr %203, i64 %208
  %210 = load i8, ptr %209, align 1, !tbaa !32
  %211 = load ptr, ptr %7, align 8, !tbaa !73
  %212 = load i32, ptr %13, align 4, !tbaa !49
  %213 = sext i32 %212 to i64
  %214 = getelementptr inbounds i8, ptr %211, i64 %213
  store i8 %210, ptr %214, align 1, !tbaa !32
  %215 = load ptr, ptr %7, align 8, !tbaa !73
  %216 = load i32, ptr %12, align 4, !tbaa !49
  %217 = sext i32 %216 to i64
  %218 = getelementptr inbounds i8, ptr %215, i64 %217
  store i8 %210, ptr %218, align 1, !tbaa !32
  %219 = load ptr, ptr %7, align 8, !tbaa !73
  %220 = load i32, ptr %11, align 4, !tbaa !49
  %221 = sext i32 %220 to i64
  %222 = getelementptr inbounds i8, ptr %219, i64 %221
  store i8 %210, ptr %222, align 1, !tbaa !32
  %223 = load i32, ptr %15, align 4, !tbaa !49
  %224 = load ptr, ptr %7, align 8, !tbaa !73
  %225 = sext i32 %223 to i64
  %226 = getelementptr inbounds i8, ptr %224, i64 %225
  store ptr %226, ptr %7, align 8, !tbaa !73
  br label %227

227:                                              ; preds = %202
  %228 = load i32, ptr %9, align 4, !tbaa !49
  %229 = add i32 %228, -1
  store i32 %229, ptr %9, align 4, !tbaa !49
  br label %199, !llvm.loop !78

230:                                              ; preds = %199
  br label %231

231:                                              ; preds = %230, %194
  br label %232

232:                                              ; preds = %231, %145
  call void @llvm.lifetime.end.p0(i64 4, ptr %15) #6
  call void @llvm.lifetime.end.p0(i64 4, ptr %14) #6
  call void @llvm.lifetime.end.p0(i64 4, ptr %13) #6
  call void @llvm.lifetime.end.p0(i64 4, ptr %12) #6
  call void @llvm.lifetime.end.p0(i64 4, ptr %11) #6
  call void @llvm.lifetime.end.p0(i64 4, ptr %10) #6
  call void @llvm.lifetime.end.p0(i64 4, ptr %9) #6
  call void @llvm.lifetime.end.p0(i64 8, ptr %8) #6
  call void @llvm.lifetime.end.p0(i64 8, ptr %7) #6
  call void @llvm.lifetime.end.p0(i64 8, ptr %6) #6
  call void @llvm.lifetime.end.p0(i64 8, ptr %5) #6
  ret i32 1
}