; Function Attrs: nounwind uwtable
define internal noundef i32 @get_text_gray_rgb_row(ptr noundef %0, ptr noundef readonly captures(none) %1) #0 {
  %3 = getelementptr inbounds nuw i8, ptr %1, i64 24
  %4 = load ptr, ptr %3, align 8, !tbaa !43
  %5 = getelementptr inbounds nuw i8, ptr %1, i64 88
  %6 = load ptr, ptr %5, align 8, !tbaa !59
  %7 = getelementptr inbounds nuw i8, ptr %1, i64 96
  %8 = load i32, ptr %7, align 8, !tbaa !47
  %9 = getelementptr inbounds nuw i8, ptr %0, i64 60
  %10 = load i32, ptr %9, align 4, !tbaa !48
  %11 = zext i32 %10 to i64
  %12 = getelementptr inbounds nuw [17 x i32], ptr @rgb_red, i64 0, i64 %11
  %13 = load i32, ptr %12, align 4, !tbaa !49
  %14 = getelementptr inbounds nuw [17 x i32], ptr @rgb_green, i64 0, i64 %11
  %15 = load i32, ptr %14, align 4, !tbaa !49
  %16 = getelementptr inbounds nuw [17 x i32], ptr @rgb_blue, i64 0, i64 %11
  %17 = load i32, ptr %16, align 4, !tbaa !49
  %18 = getelementptr inbounds nuw [17 x i32], ptr @alpha_index, i64 0, i64 %11
  %19 = load i32, ptr %18, align 4, !tbaa !49
  %20 = getelementptr inbounds nuw [17 x i32], ptr @rgb_pixelsize, i64 0, i64 %11
  %21 = load i32, ptr %20, align 4, !tbaa !49
  %22 = getelementptr inbounds nuw i8, ptr %1, i64 32
  %23 = load ptr, ptr %22, align 8, !tbaa !57
  %24 = load ptr, ptr %23, align 8, !tbaa !63
  %25 = getelementptr inbounds nuw i8, ptr %0, i64 72
  %26 = load i32, ptr %25, align 8, !tbaa !4
  %notmask = shl nsw i32 -1, %26
  %27 = xor i32 %notmask, %8
  %28 = icmp eq i32 %27, -1
  %29 = and i64 %11, 4294967292
  %30 = icmp eq i64 %29, 12
  %31 = getelementptr inbounds nuw i8, ptr %0, i64 48
  %32 = load i32, ptr %31, align 8, !tbaa !45
  %.not88103 = icmp eq i32 %32, 0
  br i1 %28, label %33, label %63

33:                                               ; preds = %2
  br i1 %30, label %34, label %50

34:                                               ; preds = %33
  br i1 %.not88103, label %.loopexit, label %.lr.ph106

.lr.ph106:                                        ; preds = %34
  %35 = sext i32 %17 to i64
  %36 = sext i32 %15 to i64
  %37 = sext i32 %13 to i64
  %38 = trunc i32 %8 to i8
  %39 = zext nneg i32 %19 to i64
  %40 = sext i32 %21 to i64
  br label %41

41:                                               ; preds = %.lr.ph106, %41
  %.0105 = phi ptr [ %24, %.lr.ph106 ], [ %48, %41 ]
  %.077104 = phi i32 [ %32, %.lr.ph106 ], [ %49, %41 ]
  %42 = tail call fastcc i32 @read_pbm_integer(ptr noundef %0, ptr noundef %4, i32 noundef %8)
  %43 = trunc i32 %42 to i8
  %44 = getelementptr inbounds i8, ptr %.0105, i64 %35
  store i8 %43, ptr %44, align 1, !tbaa !30
  %45 = getelementptr inbounds i8, ptr %.0105, i64 %36
  store i8 %43, ptr %45, align 1, !tbaa !30
  %46 = getelementptr inbounds i8, ptr %.0105, i64 %37
  store i8 %43, ptr %46, align 1, !tbaa !30
  %47 = getelementptr inbounds nuw i8, ptr %.0105, i64 %39
  store i8 %38, ptr %47, align 1, !tbaa !30
  %48 = getelementptr inbounds i8, ptr %.0105, i64 %40
  %49 = add i32 %.077104, -1
  %.not88 = icmp eq i32 %49, 0
  br i1 %.not88, label %.loopexit, label %41, !llvm.loop !65

50:                                               ; preds = %33
  br i1 %.not88103, label %.loopexit, label %.lr.ph102

.lr.ph102:                                        ; preds = %50
  %51 = sext i32 %17 to i64
  %52 = sext i32 %15 to i64
  %53 = sext i32 %13 to i64
  %54 = sext i32 %21 to i64
  br label %55

55:                                               ; preds = %.lr.ph102, %55
  %.1101 = phi ptr [ %24, %.lr.ph102 ], [ %61, %55 ]
  %.178100 = phi i32 [ %32, %.lr.ph102 ], [ %62, %55 ]
  %56 = tail call fastcc i32 @read_pbm_integer(ptr noundef %0, ptr noundef %4, i32 noundef %8)
  %57 = trunc i32 %56 to i8
  %58 = getelementptr inbounds i8, ptr %.1101, i64 %51
  store i8 %57, ptr %58, align 1, !tbaa !30
  %59 = getelementptr inbounds i8, ptr %.1101, i64 %52
  store i8 %57, ptr %59, align 1, !tbaa !30
  %60 = getelementptr inbounds i8, ptr %.1101, i64 %53
  store i8 %57, ptr %60, align 1, !tbaa !30
  %61 = getelementptr inbounds i8, ptr %.1101, i64 %54
  %62 = add i32 %.178100, -1
  %.not87 = icmp eq i32 %62, 0
  br i1 %.not87, label %.loopexit, label %55, !llvm.loop !66

63:                                               ; preds = %2
  br i1 %30, label %64, label %84

64:                                               ; preds = %63
  br i1 %.not88103, label %.loopexit, label %.lr.ph98

.lr.ph98:                                         ; preds = %64
  %65 = sext i32 %17 to i64
  %66 = sext i32 %15 to i64
  %67 = sext i32 %13 to i64
  %68 = zext nneg i32 %19 to i64
  %69 = sext i32 %21 to i64
  br label %70

70:                                               ; preds = %.lr.ph98, %70
  %.297 = phi ptr [ %24, %.lr.ph98 ], [ %82, %70 ]
  %.27996 = phi i32 [ %32, %.lr.ph98 ], [ %83, %70 ]
  %71 = tail call fastcc i32 @read_pbm_integer(ptr noundef nonnull %0, ptr noundef %4, i32 noundef %8)
  %72 = zext i32 %71 to i64
  %73 = getelementptr inbounds nuw i8, ptr %6, i64 %72
  %74 = load i8, ptr %73, align 1, !tbaa !30
  %75 = getelementptr inbounds i8, ptr %.297, i64 %65
  store i8 %74, ptr %75, align 1, !tbaa !30
  %76 = getelementptr inbounds i8, ptr %.297, i64 %66
  store i8 %74, ptr %76, align 1, !tbaa !30
  %77 = getelementptr inbounds i8, ptr %.297, i64 %67
  store i8 %74, ptr %77, align 1, !tbaa !30
  %78 = load i32, ptr %25, align 8, !tbaa !4
  %notmask86 = shl nsw i32 -1, %78
  %79 = trunc i32 %notmask86 to i8
  %80 = xor i8 %79, -1
  %81 = getelementptr inbounds nuw i8, ptr %.297, i64 %68
  store i8 %80, ptr %81, align 1, !tbaa !30
  %82 = getelementptr inbounds i8, ptr %.297, i64 %69
  %83 = add i32 %.27996, -1
  %.not85 = icmp eq i32 %83, 0
  br i1 %.not85, label %.loopexit, label %70, !llvm.loop !67

84:                                               ; preds = %63
  br i1 %.not88103, label %.loopexit, label %.lr.ph

.lr.ph:                                           ; preds = %84
  %85 = sext i32 %17 to i64
  %86 = sext i32 %15 to i64
  %87 = sext i32 %13 to i64
  %88 = sext i32 %21 to i64
  br label %89

89:                                               ; preds = %.lr.ph, %89
  %.394 = phi ptr [ %24, %.lr.ph ], [ %97, %89 ]
  %.38093 = phi i32 [ %32, %.lr.ph ], [ %98, %89 ]
  %90 = tail call fastcc i32 @read_pbm_integer(ptr noundef %0, ptr noundef %4, i32 noundef %8)
  %91 = zext i32 %90 to i64
  %92 = getelementptr inbounds nuw i8, ptr %6, i64 %91
  %93 = load i8, ptr %92, align 1, !tbaa !30
  %94 = getelementptr inbounds i8, ptr %.394, i64 %85
  store i8 %93, ptr %94, align 1, !tbaa !30
  %95 = getelementptr inbounds i8, ptr %.394, i64 %86
  store i8 %93, ptr %95, align 1, !tbaa !30
  %96 = getelementptr inbounds i8, ptr %.394, i64 %87
  store i8 %93, ptr %96, align 1, !tbaa !30
  %97 = getelementptr inbounds i8, ptr %.394, i64 %88
  %98 = add i32 %.38093, -1
  %.not = icmp eq i32 %98, 0
  br i1 %.not, label %.loopexit, label %89, !llvm.loop !68

.loopexit:                                        ; preds = %89, %70, %55, %41, %84, %64, %50, %34
  ret i32 1
}